; Function Attrs: nounwind uwtable
define hidden void @png_set_background(ptr noalias noundef %0, ptr noundef readonly %1, i32 noundef %2, i32 noundef %3, double noundef %4) local_unnamed_addr #0 {
  %6 = tail call i32 @png_fixed(ptr noundef %0, double noundef %4, ptr noundef nonnull @.str.2) #11
  %.not.i.i = icmp eq ptr %0, null
  br i1 %.not.i.i, label %png_set_background_fixed.exit, label %7

7:                                                ; preds = %5
  %8 = getelementptr inbounds i8, ptr %0, i64 296
  %9 = load i32, ptr %8, align 8, !alias.scope !9
  %10 = and i32 %9, 64
  %.not8.i.i = icmp eq i32 %10, 0
  br i1 %.not8.i.i, label %png_rtran_ok.exit.i, label %11

11:                                               ; preds = %7
  tail call void @png_app_error(ptr noundef nonnull %0, ptr noundef nonnull @.str.19) #11
  br label %png_set_background_fixed.exit

png_rtran_ok.exit.i:                              ; preds = %7
  %12 = or i32 %9, 16384
  store i32 %12, ptr %8, align 8, !alias.scope !9
  %13 = icmp eq ptr %1, null
  br i1 %13, label %png_set_background_fixed.exit, label %14

14:                                               ; preds = %png_rtran_ok.exit.i
  %15 = icmp eq i32 %2, 0
  br i1 %15, label %16, label %17

16:                                               ; preds = %14
  tail call void @png_warning(ptr noundef nonnull %0, ptr noundef nonnull @.str.1) #11
  br label %png_set_background_fixed.exit

17:                                               ; preds = %14
  %18 = getelementptr inbounds i8, ptr %0, i64 300
  %19 = load i32, ptr %18, align 4, !alias.scope !14
  %20 = and i32 %12, -8257
  store i32 %20, ptr %8, align 8, !alias.scope !14
  %21 = getelementptr inbounds i8, ptr %0, i64 536
  tail call void @llvm.memcpy.p0.p0.i64(ptr noundef nonnull align 8 dereferenceable(10) %21, ptr noundef nonnull readonly align 2 dereferenceable(10) %1, i64 10, i1 false)
  %22 = getelementptr inbounds i8, ptr %0, i64 532
  store i32 %6, ptr %22, align 4, !alias.scope !14
  %23 = trunc i32 %2 to i8
  %24 = getelementptr inbounds i8, ptr %0, i64 530
  store i8 %23, ptr %24, align 2, !alias.scope !14
  %.not.i = icmp eq i32 %3, 0
  %25 = and i32 %19, -8651137
  br i1 %.not.i, label %28, label %26

26:                                               ; preds = %17
  %27 = or disjoint i32 %25, 262528
  store i32 %27, ptr %18, align 4, !alias.scope !14
  br label %png_set_background_fixed.exit

28:                                               ; preds = %17
  %29 = or disjoint i32 %25, 262272
  store i32 %29, ptr %18, align 4, !alias.scope !14
  br label %png_set_background_fixed.exit

png_set_background_fixed.exit:                    ; preds = %5, %11, %png_rtran_ok.exit.i, %16, %26, %28
  ret void
}